; Function Attrs: mustprogress uwtable
define hidden void @_ZN6google8protobuf8compiler10objectivec12ImportWriter16AddRuntimeImportERKNSt7__cxx1112basic_stringIcSt11char_traitsIcESaIcEEE(ptr noundef nonnull align 8 dereferenceable(208) %this, ptr noundef nonnull align 8 dereferenceable(32) %header_name) local_unnamed_addr #3 align 2 {
entry:
  %_M_finish.i = getelementptr inbounds i8, ptr %this, i64 144
  %0 = load ptr, ptr %_M_finish.i, align 8
  %_M_end_of_storage.i = getelementptr inbounds i8, ptr %this, i64 152
  %1 = load ptr, ptr %_M_end_of_storage.i, align 8
  %cmp.not.i = icmp eq ptr %0, %1
  br i1 %cmp.not.i, label %if.else.i, label %if.then.i

if.then.i:                                        ; preds = %entry
  tail call void @_ZNSt7__cxx1112basic_stringIcSt11char_traitsIcESaIcEEC1ERKS4_(ptr noundef nonnull align 8 dereferenceable(32) %0, ptr noundef nonnull align 8 dereferenceable(32) %header_name)
  %2 = load ptr, ptr %_M_finish.i, align 8
  %incdec.ptr.i = getelementptr inbounds i8, ptr %2, i64 32
  store ptr %incdec.ptr.i, ptr %_M_finish.i, align 8
  br label %_ZNSt6vectorINSt7__cxx1112basic_stringIcSt11char_traitsIcESaIcEEESaIS5_EE9push_backERKS5_.exit

if.else.i:                                        ; preds = %entry
  %protobuf_imports_ = getelementptr inbounds i8, ptr %this, i64 136
  tail call void @_ZNSt6vectorINSt7__cxx1112basic_stringIcSt11char_traitsIcESaIcEEESaIS5_EE17_M_realloc_insertIJRKS5_EEEvN9__gnu_cxx17__normal_iteratorIPS5_S7_EEDpOT_(ptr noundef nonnull align 8 dereferenceable(24) %protobuf_imports_, ptr %0, ptr noundef nonnull align 8 dereferenceable(32) %header_name)
  br label %_ZNSt6vectorINSt7__cxx1112basic_stringIcSt11char_traitsIcESaIcEEESaIS5_EE9push_backERKS5_.exit

_ZNSt6vectorINSt7__cxx1112basic_stringIcSt11char_traitsIcESaIcEEESaIS5_EE9push_backERKS5_.exit: ; preds = %if.then.i, %if.else.i
  ret void
}